target datalayout = "e-m:e-p270:32:32-p271:32:32-p272:64:64-i64:64-i128:128-f80:128-n8:16:32:64-S128"
target triple = "x86_64-pc-linux-gnu"

%struct.DdNode = type { i32, i32, ptr, %union.anon, i64 }
%union.anon = type { %struct.DdChildren }
%struct.DdChildren = type { ptr, ptr }
%struct.DdHashTable = type { i32, i32, ptr, ptr, ptr, i32, i32, i32, i32, ptr }
%struct.DdHashItem = type { ptr, i64, ptr, [1 x ptr] }

; Function Attrs: nounwind uwtable
define ptr @cuddHashTableLookup3(ptr noundef %0, ptr noundef %1, ptr noundef %2, ptr noundef %3) #0 {
  %5 = alloca ptr, align 8
  %6 = alloca ptr, align 8
  %7 = alloca ptr, align 8
  %8 = alloca ptr, align 8
  %9 = alloca ptr, align 8
  %10 = alloca i32, align 4
  %11 = alloca ptr, align 8
  %12 = alloca ptr, align 8
  %13 = alloca ptr, align 8
  %14 = alloca ptr, align 8
  %15 = alloca i32, align 4
  store ptr %0, ptr %6, align 8, !tbaa !62
  store ptr %1, ptr %7, align 8, !tbaa !50
  store ptr %2, ptr %8, align 8, !tbaa !50
  store ptr %3, ptr %9, align 8, !tbaa !50
  call void @llvm.lifetime.start.p0(i64 4, ptr %10) #10
  call void @llvm.lifetime.start.p0(i64 8, ptr %11) #10
  call void @llvm.lifetime.start.p0(i64 8, ptr %12) #10
  %16 = load ptr, ptr %8, align 8, !tbaa !50
  %17 = ptrtoint ptr %16 to i64
  %18 = and i64 %17, -2
  %19 = inttoptr i64 %18 to ptr
  %20 = getelementptr inbounds nuw %struct.DdNode, ptr %19, i32 0, i32 4
  %21 = load i64, ptr %20, align 8, !tbaa !88
  %22 = shl i64 %21, 1
  %23 = load ptr, ptr %8, align 8, !tbaa !50
  %24 = ptrtoint ptr %23 to i64
  %25 = and i64 %24, 1
  %26 = trunc i64 %25 to i32
  %27 = sext i32 %26 to i64
  %28 = or i64 %22, %27
  %29 = trunc i64 %28 to i32
  %30 = load ptr, ptr %7, align 8, !tbaa !50
  %31 = ptrtoint ptr %30 to i64
  %32 = and i64 %31, -2
  %33 = inttoptr i64 %32 to ptr
  %34 = getelementptr inbounds nuw %struct.DdNode, ptr %33, i32 0, i32 4
  %35 = load i64, ptr %34, align 8, !tbaa !88
  %36 = shl i64 %35, 1
  %37 = load ptr, ptr %7, align 8, !tbaa !50
  %38 = ptrtoint ptr %37 to i64
  %39 = and i64 %38, 1
  %40 = trunc i64 %39 to i32
  %41 = sext i32 %40 to i64
  %42 = or i64 %36, %41
  %43 = trunc i64 %42 to i32
  %44 = add i32 %29, %43
  %45 = mul i32 %44, 12582917
  %46 = load ptr, ptr %9, align 8, !tbaa !50
  %47 = ptrtoint ptr %46 to i64
  %48 = and i64 %47, -2
  %49 = inttoptr i64 %48 to ptr
  %50 = getelementptr inbounds nuw %struct.DdNode, ptr %49, i32 0, i32 4
  %51 = load i64, ptr %50, align 8, !tbaa !88
  %52 = shl i64 %51, 1
  %53 = load ptr, ptr %9, align 8, !tbaa !50
  %54 = ptrtoint ptr %53 to i64
  %55 = and i64 %54, 1
  %56 = trunc i64 %55 to i32
  %57 = sext i32 %56 to i64
  %58 = or i64 %52, %57
  %59 = trunc i64 %58 to i32
  %60 = add i32 %45, %59
  %61 = mul i32 %60, 4256249
  %62 = load ptr, ptr %6, align 8, !tbaa !62
  %63 = getelementptr inbounds nuw %struct.DdHashTable, ptr %62, i32 0, i32 6
  %64 = load i32, ptr %63, align 4, !tbaa !73
  %65 = lshr i32 %61, %64
  store i32 %65, ptr %10, align 4, !tbaa !8
  %66 = load ptr, ptr %6, align 8, !tbaa !62
  %67 = getelementptr inbounds nuw %struct.DdHashTable, ptr %66, i32 0, i32 2
  %68 = load ptr, ptr %67, align 8, !tbaa !74
  %69 = load i32, ptr %10, align 4, !tbaa !8
  %70 = zext i32 %69 to i64
  %71 = getelementptr inbounds nuw ptr, ptr %68, i64 %70
  %72 = load ptr, ptr %71, align 8, !tbaa !77
  store ptr %72, ptr %11, align 8, !tbaa !77
  store ptr null, ptr %12, align 8, !tbaa !77
  br label %73

73:                                               ; preds = %157, %4
  %74 = load ptr, ptr %11, align 8, !tbaa !77
  %75 = icmp ne ptr %74, null
  br i1 %75, label %76, label %158

76:                                               ; preds = %73
  call void @llvm.lifetime.start.p0(i64 8, ptr %13) #10
  %77 = load ptr, ptr %11, align 8, !tbaa !77
  %78 = getelementptr inbounds nuw %struct.DdHashItem, ptr %77, i32 0, i32 3
  %79 = getelementptr inbounds [1 x ptr], ptr %78, i64 0, i64 0
  store ptr %79, ptr %13, align 8, !tbaa !49
  %80 = load ptr, ptr %7, align 8, !tbaa !50
  %81 = load ptr, ptr %13, align 8, !tbaa !49
  %82 = getelementptr inbounds ptr, ptr %81, i64 0
  %83 = load ptr, ptr %82, align 8, !tbaa !50
  %84 = icmp eq ptr %80, %83
  br i1 %84, label %85, label %150

85:                                               ; preds = %76
  %86 = load ptr, ptr %8, align 8, !tbaa !50
  %87 = load ptr, ptr %13, align 8, !tbaa !49
  %88 = getelementptr inbounds ptr, ptr %87, i64 1
  %89 = load ptr, ptr %88, align 8, !tbaa !50
  %90 = icmp eq ptr %86, %89
  br i1 %90, label %91, label %150

91:                                               ; preds = %85
  %92 = load ptr, ptr %9, align 8, !tbaa !50
  %93 = load ptr, ptr %13, align 8, !tbaa !49
  %94 = getelementptr inbounds ptr, ptr %93, i64 2
  %95 = load ptr, ptr %94, align 8, !tbaa !50
  %96 = icmp eq ptr %92, %95
  br i1 %96, label %97, label %150

97:                                               ; preds = %91
  call void @llvm.lifetime.start.p0(i64 8, ptr %14) #10
  %98 = load ptr, ptr %11, align 8, !tbaa !77
  %99 = getelementptr inbounds nuw %struct.DdHashItem, ptr %98, i32 0, i32 2
  %100 = load ptr, ptr %99, align 8, !tbaa !78
  store ptr %100, ptr %14, align 8, !tbaa !50
  %101 = load ptr, ptr %11, align 8, !tbaa !77
  %102 = getelementptr inbounds nuw %struct.DdHashItem, ptr %101, i32 0, i32 1
  %103 = load i64, ptr %102, align 8, !tbaa !86
  %104 = add nsw i64 %103, -1
  store i64 %104, ptr %102, align 8, !tbaa !86
  %105 = load ptr, ptr %11, align 8, !tbaa !77
  %106 = getelementptr inbounds nuw %struct.DdHashItem, ptr %105, i32 0, i32 1
  %107 = load i64, ptr %106, align 8, !tbaa !86
  %108 = icmp eq i64 %107, 0
  br i1 %108, label %109, label %148

109:                                              ; preds = %97
  %110 = load ptr, ptr %14, align 8, !tbaa !50
  %111 = ptrtoint ptr %110 to i64
  %112 = and i64 %111, -2
  %113 = inttoptr i64 %112 to ptr
  %114 = getelementptr inbounds nuw %struct.DdNode, ptr %113, i32 0, i32 1
  %115 = load i32, ptr %114, align 4, !tbaa !55
  %116 = add i32 %115, -1
  store i32 %116, ptr %114, align 4, !tbaa !55
  %117 = load ptr, ptr %12, align 8, !tbaa !77
  %118 = icmp eq ptr %117, null
  br i1 %118, label %119, label %129

119:                                              ; preds = %109
  %120 = load ptr, ptr %11, align 8, !tbaa !77
  %121 = getelementptr inbounds nuw %struct.DdHashItem, ptr %120, i32 0, i32 0
  %122 = load ptr, ptr %121, align 8, !tbaa !80
  %123 = load ptr, ptr %6, align 8, !tbaa !62
  %124 = getelementptr inbounds nuw %struct.DdHashTable, ptr %123, i32 0, i32 2
  %125 = load ptr, ptr %124, align 8, !tbaa !74
  %126 = load i32, ptr %10, align 4, !tbaa !8
  %127 = zext i32 %126 to i64
  %128 = getelementptr inbounds nuw ptr, ptr %125, i64 %127
  store ptr %122, ptr %128, align 8, !tbaa !77
  br label %135

129:                                              ; preds = %109
  %130 = load ptr, ptr %11, align 8, !tbaa !77
  %131 = getelementptr inbounds nuw %struct.DdHashItem, ptr %130, i32 0, i32 0
  %132 = load ptr, ptr %131, align 8, !tbaa !80
  %133 = load ptr, ptr %12, align 8, !tbaa !77
  %134 = getelementptr inbounds nuw %struct.DdHashItem, ptr %133, i32 0, i32 0
  store ptr %132, ptr %134, align 8, !tbaa !80
  br label %135

135:                                              ; preds = %129, %119
  %136 = load ptr, ptr %6, align 8, !tbaa !62
  %137 = getelementptr inbounds nuw %struct.DdHashTable, ptr %136, i32 0, i32 3
  %138 = load ptr, ptr %137, align 8, !tbaa !70
  %139 = load ptr, ptr %11, align 8, !tbaa !77
  %140 = getelementptr inbounds nuw %struct.DdHashItem, ptr %139, i32 0, i32 0
  store ptr %138, ptr %140, align 8, !tbaa !80
  %141 = load ptr, ptr %11, align 8, !tbaa !77
  %142 = load ptr, ptr %6, align 8, !tbaa !62
  %143 = getelementptr inbounds nuw %struct.DdHashTable, ptr %142, i32 0, i32 3
  store ptr %141, ptr %143, align 8, !tbaa !70
  %144 = load ptr, ptr %6, align 8, !tbaa !62
  %145 = getelementptr inbounds nuw %struct.DdHashTable, ptr %144, i32 0, i32 7
  %146 = load i32, ptr %145, align 8, !tbaa !75
  %147 = add i32 %146, -1
  store i32 %147, ptr %145, align 8, !tbaa !75
  br label %148

148:                                              ; preds = %135, %97
  %149 = load ptr, ptr %14, align 8, !tbaa !50
  store ptr %149, ptr %5, align 8
  store i32 1, ptr %15, align 4
  call void @llvm.lifetime.end.p0(i64 8, ptr %14) #10
  br label %155

150:                                              ; preds = %91, %85, %76
  %151 = load ptr, ptr %11, align 8, !tbaa !77
  store ptr %151, ptr %12, align 8, !tbaa !77
  %152 = load ptr, ptr %11, align 8, !tbaa !77
  %153 = getelementptr inbounds nuw %struct.DdHashItem, ptr %152, i32 0, i32 0
  %154 = load ptr, ptr %153, align 8, !tbaa !80
  store ptr %154, ptr %11, align 8, !tbaa !77
  store i32 0, ptr %15, align 4
  br label %155

155:                                              ; preds = %150, %148
  call void @llvm.lifetime.end.p0(i64 8, ptr %13) #10
  %156 = load i32, ptr %15, align 4
  switch i32 %156, label %159 [
    i32 0, label %157
  ]

157:                                              ; preds = %155
  br label %73, !llvm.loop !112

158:                                              ; preds = %73
  store ptr null, ptr %5, align 8
  store i32 1, ptr %15, align 4
  br label %159

159:                                              ; preds = %158, %155
  call void @llvm.lifetime.end.p0(i64 8, ptr %12) #10
  call void @llvm.lifetime.end.p0(i64 8, ptr %11) #10
  call void @llvm.lifetime.end.p0(i64 4, ptr %10) #10
  %160 = load ptr, ptr %5, align 8
  ret ptr %160
}