; Function Attrs: nofree norecurse nosync nounwind memory(readwrite, inaccessiblemem: none) uwtable
define ptr @cuddHashTableLookup3(ptr noundef captures(none) %0, ptr noundef %1, ptr noundef %2, ptr noundef %3) local_unnamed_addr #6 {
  %5 = ptrtoint ptr %2 to i64
  %6 = and i64 %5, -2
  %7 = inttoptr i64 %6 to ptr
  %8 = getelementptr inbounds nuw i8, ptr %7, i64 32
  %9 = load i64, ptr %8, align 8, !tbaa !79
  %10 = shl i64 %9, 1
  %11 = and i64 %5, 1
  %12 = or disjoint i64 %10, %11
  %13 = trunc i64 %12 to i32
  %14 = ptrtoint ptr %1 to i64
  %15 = and i64 %14, -2
  %16 = inttoptr i64 %15 to ptr
  %17 = getelementptr inbounds nuw i8, ptr %16, i64 32
  %18 = load i64, ptr %17, align 8, !tbaa !79
  %19 = shl i64 %18, 1
  %20 = and i64 %14, 1
  %21 = or disjoint i64 %19, %20
  %22 = trunc i64 %21 to i32
  %23 = add i32 %22, %13
  %24 = mul i32 %23, 12582917
  %25 = ptrtoint ptr %3 to i64
  %26 = and i64 %25, -2
  %27 = inttoptr i64 %26 to ptr
  %28 = getelementptr inbounds nuw i8, ptr %27, i64 32
  %29 = load i64, ptr %28, align 8, !tbaa !79
  %30 = shl i64 %29, 1
  %31 = and i64 %25, 1
  %32 = or disjoint i64 %30, %31
  %33 = trunc i64 %32 to i32
  %34 = add i32 %24, %33
  %35 = mul i32 %34, 4256249
  %36 = getelementptr inbounds nuw i8, ptr %0, i64 36
  %37 = load i32, ptr %36, align 4, !tbaa !63
  %38 = lshr i32 %35, %37
  %39 = getelementptr inbounds nuw i8, ptr %0, i64 8
  %40 = load ptr, ptr %39, align 8, !tbaa !64
  %41 = zext i32 %38 to i64
  %42 = getelementptr inbounds nuw ptr, ptr %40, i64 %41
  %.03747 = load ptr, ptr %42, align 8, !tbaa !67
  %.not48 = icmp eq ptr %.03747, null
  br i1 %.not48, label %.thread, label %.lr.ph

.lr.ph:                                           ; preds = %4, %78
  %.03750 = phi ptr [ %.037, %78 ], [ %.03747, %4 ]
  %.03949 = phi ptr [ %.03750, %78 ], [ null, %4 ]
  %43 = getelementptr inbounds nuw i8, ptr %.03750, i64 24
  %44 = load ptr, ptr %43, align 8, !tbaa !45
  %45 = icmp eq ptr %1, %44
  br i1 %45, label %46, label %78

46:                                               ; preds = %.lr.ph
  %47 = getelementptr inbounds nuw i8, ptr %.03750, i64 32
  %48 = load ptr, ptr %47, align 8, !tbaa !45
  %49 = icmp eq ptr %2, %48
  br i1 %49, label %50, label %78

50:                                               ; preds = %46
  %51 = getelementptr inbounds nuw i8, ptr %.03750, i64 40
  %52 = load ptr, ptr %51, align 8, !tbaa !45
  %53 = icmp eq ptr %3, %52
  br i1 %53, label %54, label %78

54:                                               ; preds = %50
  %55 = getelementptr inbounds nuw i8, ptr %.03750, i64 16
  %56 = load ptr, ptr %55, align 8, !tbaa !68
  %57 = getelementptr inbounds nuw i8, ptr %.03750, i64 8
  %58 = load i64, ptr %57, align 8, !tbaa !74
  %59 = add nsw i64 %58, -1
  store i64 %59, ptr %57, align 8, !tbaa !74
  %60 = icmp eq i64 %59, 0
  br i1 %60, label %61, label %.thread

61:                                               ; preds = %54
  %62 = ptrtoint ptr %56 to i64
  %63 = and i64 %62, -2
  %64 = inttoptr i64 %63 to ptr
  %65 = getelementptr inbounds nuw i8, ptr %64, i64 4
  %66 = load i32, ptr %65, align 4, !tbaa !49
  %67 = add i32 %66, -1
  store i32 %67, ptr %65, align 4, !tbaa !49
  %68 = icmp eq ptr %.03949, null
  %69 = load ptr, ptr %.03750, align 8, !tbaa !76
  br i1 %68, label %70, label %71

70:                                               ; preds = %61
  store ptr %69, ptr %42, align 8, !tbaa !67
  br label %72

71:                                               ; preds = %61
  store ptr %69, ptr %.03949, align 8, !tbaa !76
  br label %72

72:                                               ; preds = %71, %70
  %73 = getelementptr inbounds nuw i8, ptr %0, i64 16
  %74 = load ptr, ptr %73, align 8, !tbaa !86
  store ptr %74, ptr %.03750, align 8, !tbaa !76
  store ptr %.03750, ptr %73, align 8, !tbaa !86
  %75 = getelementptr inbounds nuw i8, ptr %0, i64 40
  %76 = load i32, ptr %75, align 8, !tbaa !65
  %77 = add i32 %76, -1
  store i32 %77, ptr %75, align 8, !tbaa !65
  br label %.thread

78:                                               ; preds = %.lr.ph, %46, %50
  %.037 = load ptr, ptr %.03750, align 8, !tbaa !67
  %.not = icmp eq ptr %.037, null
  br i1 %.not, label %.thread, label %.lr.ph, !llvm.loop !100

.thread:                                          ; preds = %78, %4, %54, %72
  %.2 = phi ptr [ %56, %72 ], [ %56, %54 ], [ null, %4 ], [ null, %78 ]
  ret ptr %.2
}